target datalayout = "e-m:e-p270:32:32-p271:32:32-p272:64:64-i64:64-i128:128-f80:128-n8:16:32:64-S128"
target triple = "x86_64-pc-linux-gnu"

%struct.ChaChaPoly_Aead = type { %struct.ChaCha, %struct.Poly1305, i32, i32, i8, i8 }
%struct.ChaCha = type { [16 x i32], i32 }
%struct.Poly1305 = type { [3 x i64], [3 x i64], [2 x i64], i64, [16 x i8], i8 }

; Function Attrs: nounwind uwtable
define i32 @wc_ChaCha20Poly1305_UpdateData(ptr noundef %0, ptr noundef %1, ptr noundef %2, i32 noundef %3) #0 {
  %5 = alloca i32, align 4
  %6 = alloca ptr, align 8
  %7 = alloca ptr, align 8
  %8 = alloca ptr, align 8
  %9 = alloca i32, align 4
  %10 = alloca i32, align 4
  %11 = alloca i32, align 4
  store ptr %0, ptr %6, align 8, !tbaa !10
  store ptr %1, ptr %7, align 8, !tbaa !3
  store ptr %2, ptr %8, align 8, !tbaa !3
  store i32 %3, ptr %9, align 4, !tbaa !8
  call void @llvm.lifetime.start.p0(i64 4, ptr %10) #5
  store i32 0, ptr %10, align 4, !tbaa !8
  %12 = load ptr, ptr %6, align 8, !tbaa !10
  %13 = icmp eq ptr %12, null
  br i1 %13, label %20, label %14

14:                                               ; preds = %4
  %15 = load ptr, ptr %7, align 8, !tbaa !3
  %16 = icmp eq ptr %15, null
  br i1 %16, label %20, label %17

17:                                               ; preds = %14
  %18 = load ptr, ptr %8, align 8, !tbaa !3
  %19 = icmp eq ptr %18, null
  br i1 %19, label %20, label %21

20:                                               ; preds = %17, %14, %4
  store i32 -173, ptr %5, align 4
  store i32 1, ptr %11, align 4
  br label %116

21:                                               ; preds = %17
  %22 = load ptr, ptr %6, align 8, !tbaa !10
  %23 = getelementptr inbounds nuw %struct.ChaChaPoly_Aead, ptr %22, i32 0, i32 4
  %24 = load i8, ptr %23, align 8, !tbaa !12
  %25 = zext i8 %24 to i32
  %26 = icmp ne i32 %25, 1
  br i1 %26, label %27, label %40

27:                                               ; preds = %21
  %28 = load ptr, ptr %6, align 8, !tbaa !10
  %29 = getelementptr inbounds nuw %struct.ChaChaPoly_Aead, ptr %28, i32 0, i32 4
  %30 = load i8, ptr %29, align 8, !tbaa !12
  %31 = zext i8 %30 to i32
  %32 = icmp ne i32 %31, 2
  br i1 %32, label %33, label %40

33:                                               ; preds = %27
  %34 = load ptr, ptr %6, align 8, !tbaa !10
  %35 = getelementptr inbounds nuw %struct.ChaChaPoly_Aead, ptr %34, i32 0, i32 4
  %36 = load i8, ptr %35, align 8, !tbaa !12
  %37 = zext i8 %36 to i32
  %38 = icmp ne i32 %37, 3
  br i1 %38, label %39, label %40

39:                                               ; preds = %33
  store i32 -192, ptr %5, align 4
  store i32 1, ptr %11, align 4
  br label %116

40:                                               ; preds = %33, %27, %21
  %41 = load i32, ptr %9, align 4, !tbaa !8
  %42 = load ptr, ptr %6, align 8, !tbaa !10
  %43 = getelementptr inbounds nuw %struct.ChaChaPoly_Aead, ptr %42, i32 0, i32 3
  %44 = load i32, ptr %43, align 4, !tbaa !18
  %45 = sub i32 -1, %44
  %46 = icmp ugt i32 %41, %45
  br i1 %46, label %47, label %48

47:                                               ; preds = %40
  store i32 -274, ptr %5, align 4
  store i32 1, ptr %11, align 4
  br label %116

48:                                               ; preds = %40
  %49 = load ptr, ptr %6, align 8, !tbaa !10
  %50 = getelementptr inbounds nuw %struct.ChaChaPoly_Aead, ptr %49, i32 0, i32 4
  %51 = load i8, ptr %50, align 8, !tbaa !12
  %52 = zext i8 %51 to i32
  %53 = icmp eq i32 %52, 2
  br i1 %53, label %54, label %61

54:                                               ; preds = %48
  %55 = load ptr, ptr %6, align 8, !tbaa !10
  %56 = getelementptr inbounds nuw %struct.ChaChaPoly_Aead, ptr %55, i32 0, i32 1
  %57 = load ptr, ptr %6, align 8, !tbaa !10
  %58 = getelementptr inbounds nuw %struct.ChaChaPoly_Aead, ptr %57, i32 0, i32 2
  %59 = load i32, ptr %58, align 8, !tbaa !17
  %60 = call i32 @wc_Poly1305_Pad(ptr noundef %56, i32 noundef %59)
  store i32 %60, ptr %10, align 4, !tbaa !8
  br label %61

61:                                               ; preds = %54, %48
  %62 = load ptr, ptr %6, align 8, !tbaa !10
  %63 = getelementptr inbounds nuw %struct.ChaChaPoly_Aead, ptr %62, i32 0, i32 4
  store i8 3, ptr %63, align 8, !tbaa !12
  %64 = load i32, ptr %10, align 4, !tbaa !8
  %65 = icmp eq i32 %64, 0
  br i1 %65, label %66, label %105

66:                                               ; preds = %61
  %67 = load ptr, ptr %6, align 8, !tbaa !10
  %68 = getelementptr inbounds nuw %struct.ChaChaPoly_Aead, ptr %67, i32 0, i32 5
  %69 = load i8, ptr %68, align 1
  %70 = and i8 %69, 1
  %71 = icmp ne i8 %70, 0
  br i1 %71, label %72, label %88

72:                                               ; preds = %66
  %73 = load ptr, ptr %6, align 8, !tbaa !10
  %74 = getelementptr inbounds nuw %struct.ChaChaPoly_Aead, ptr %73, i32 0, i32 0
  %75 = load ptr, ptr %8, align 8, !tbaa !3
  %76 = load ptr, ptr %7, align 8, !tbaa !3
  %77 = load i32, ptr %9, align 4, !tbaa !8
  %78 = call i32 @wc_Chacha_Process(ptr noundef %74, ptr noundef %75, ptr noundef %76, i32 noundef %77)
  store i32 %78, ptr %10, align 4, !tbaa !8
  %79 = load i32, ptr %10, align 4, !tbaa !8
  %80 = icmp eq i32 %79, 0
  br i1 %80, label %81, label %87

81:                                               ; preds = %72
  %82 = load ptr, ptr %6, align 8, !tbaa !10
  %83 = getelementptr inbounds nuw %struct.ChaChaPoly_Aead, ptr %82, i32 0, i32 1
  %84 = load ptr, ptr %8, align 8, !tbaa !3
  %85 = load i32, ptr %9, align 4, !tbaa !8
  %86 = call i32 @wc_Poly1305Update(ptr noundef %83, ptr noundef %84, i32 noundef %85)
  store i32 %86, ptr %10, align 4, !tbaa !8
  br label %87

87:                                               ; preds = %81, %72
  br label %104

88:                                               ; preds = %66
  %89 = load ptr, ptr %6, align 8, !tbaa !10
  %90 = getelementptr inbounds nuw %struct.ChaChaPoly_Aead, ptr %89, i32 0, i32 1
  %91 = load ptr, ptr %7, align 8, !tbaa !3
  %92 = load i32, ptr %9, align 4, !tbaa !8
  %93 = call i32 @wc_Poly1305Update(ptr noundef %90, ptr noundef %91, i32 noundef %92)
  store i32 %93, ptr %10, align 4, !tbaa !8
  %94 = load i32, ptr %10, align 4, !tbaa !8
  %95 = icmp eq i32 %94, 0
  br i1 %95, label %96, label %103

96:                                               ; preds = %88
  %97 = load ptr, ptr %6, align 8, !tbaa !10
  %98 = getelementptr inbounds nuw %struct.ChaChaPoly_Aead, ptr %97, i32 0, i32 0
  %99 = load ptr, ptr %8, align 8, !tbaa !3
  %100 = load ptr, ptr %7, align 8, !tbaa !3
  %101 = load i32, ptr %9, align 4, !tbaa !8
  %102 = call i32 @wc_Chacha_Process(ptr noundef %98, ptr noundef %99, ptr noundef %100, i32 noundef %101)
  store i32 %102, ptr %10, align 4, !tbaa !8
  br label %103

103:                                              ; preds = %96, %88
  br label %104

104:                                              ; preds = %103, %87
  br label %105

105:                                              ; preds = %104, %61
  %106 = load i32, ptr %10, align 4, !tbaa !8
  %107 = icmp eq i32 %106, 0
  br i1 %107, label %108, label %114

108:                                              ; preds = %105
  %109 = load i32, ptr %9, align 4, !tbaa !8
  %110 = load ptr, ptr %6, align 8, !tbaa !10
  %111 = getelementptr inbounds nuw %struct.ChaChaPoly_Aead, ptr %110, i32 0, i32 3
  %112 = load i32, ptr %111, align 4, !tbaa !18
  %113 = add i32 %112, %109
  store i32 %113, ptr %111, align 4, !tbaa !18
  br label %114

114:                                              ; preds = %108, %105
  %115 = load i32, ptr %10, align 4, !tbaa !8
  store i32 %115, ptr %5, align 4
  store i32 1, ptr %11, align 4
  br label %116

116:                                              ; preds = %114, %47, %39, %20
  call void @llvm.lifetime.end.p0(i64 4, ptr %10) #5
  %117 = load i32, ptr %5, align 4
  ret i32 %117
}