; Function Attrs: nounwind uwtable
define i32 @wc_ChaCha20Poly1305_UpdateData(ptr noundef %0, ptr noundef %1, ptr noundef %2, i32 noundef %3) local_unnamed_addr #0 {
  %5 = icmp eq ptr %0, null
  %6 = icmp eq ptr %1, null
  %or.cond = or i1 %5, %6
  %7 = icmp eq ptr %2, null
  %or.cond3 = or i1 %or.cond, %7
  br i1 %or.cond3, label %.thread49, label %8

8:                                                ; preds = %4
  %9 = getelementptr inbounds nuw i8, ptr %0, i64 176
  %10 = load i8, ptr %9, align 8, !tbaa !3
  %.off = add i8 %10, -1
  %switch = icmp ult i8 %.off, 3
  br i1 %switch, label %11, label %.thread49

11:                                               ; preds = %8
  %12 = getelementptr inbounds nuw i8, ptr %0, i64 172
  %13 = load i32, ptr %12, align 4, !tbaa !12
  %14 = xor i32 %13, -1
  %15 = icmp ugt i32 %3, %14
  br i1 %15, label %.thread49, label %16

16:                                               ; preds = %11
  %17 = icmp eq i8 %10, 2
  br i1 %17, label %18, label %.thread

.thread:                                          ; preds = %16
  store i8 3, ptr %9, align 8, !tbaa !3
  br label %24

18:                                               ; preds = %16
  %19 = getelementptr inbounds nuw i8, ptr %0, i64 72
  %20 = getelementptr inbounds nuw i8, ptr %0, i64 168
  %21 = load i32, ptr %20, align 8, !tbaa !11
  %22 = tail call i32 @wc_Poly1305_Pad(ptr noundef nonnull %19, i32 noundef %21) #5
  store i8 3, ptr %9, align 8, !tbaa !3
  %23 = icmp eq i32 %22, 0
  br i1 %23, label %24, label %.thread49

24:                                               ; preds = %.thread, %18
  %25 = getelementptr inbounds nuw i8, ptr %0, i64 177
  %26 = load i8, ptr %25, align 1
  %27 = and i8 %26, 1
  %.not47 = icmp eq i8 %27, 0
  br i1 %.not47, label %34, label %28

28:                                               ; preds = %24
  %29 = tail call i32 @wc_Chacha_Process(ptr noundef nonnull %0, ptr noundef nonnull %2, ptr noundef nonnull %1, i32 noundef %3) #5
  %30 = icmp eq i32 %29, 0
  br i1 %30, label %31, label %.thread49

31:                                               ; preds = %28
  %32 = getelementptr inbounds nuw i8, ptr %0, i64 72
  %33 = tail call i32 @wc_Poly1305Update(ptr noundef nonnull %32, ptr noundef nonnull %2, i32 noundef %3) #5
  br label %40

34:                                               ; preds = %24
  %35 = getelementptr inbounds nuw i8, ptr %0, i64 72
  %36 = tail call i32 @wc_Poly1305Update(ptr noundef nonnull %35, ptr noundef nonnull %1, i32 noundef %3) #5
  %37 = icmp eq i32 %36, 0
  br i1 %37, label %38, label %.thread49

38:                                               ; preds = %34
  %39 = tail call i32 @wc_Chacha_Process(ptr noundef nonnull %0, ptr noundef nonnull %2, ptr noundef nonnull %1, i32 noundef %3) #5
  br label %40

40:                                               ; preds = %31, %38
  %.1 = phi i32 [ %33, %31 ], [ %39, %38 ]
  %41 = icmp eq i32 %.1, 0
  br i1 %41, label %42, label %.thread49

42:                                               ; preds = %40
  %43 = load i32, ptr %12, align 4, !tbaa !12
  %44 = add i32 %43, %3
  store i32 %44, ptr %12, align 4, !tbaa !12
  br label %.thread49

.thread49:                                        ; preds = %18, %34, %28, %8, %40, %42, %11, %4
  %.037 = phi i32 [ -173, %4 ], [ -192, %8 ], [ -274, %11 ], [ 0, %42 ], [ %.1, %40 ], [ %22, %18 ], [ %36, %34 ], [ %29, %28 ]
  ret i32 %.037
}